(i__main__
dhcpd
p0
(dp1
S'glob'
p2
(dp3
S'net_end'
p4
S'192.168.0.200'
p5
sS'net_mask'
p6
S'255.255.255.0'
p7
sS'domain_name'
p8
S'baryon.com.ar'
p9
sS'dns_1'
p10
S'my_ns1'
p11
sS'dns_2'
p12
S'my_ns2'
p13
sS'net_start'
p14
S'192.168.0.100'
p15
sS'net_gateway'
p16
S'192.168.0.1'
p17
sS'net_address'
p18
S'192.168.0.0'
p19
ssS'host_list'
p20
(dp21
S'my_name'
p22
(dp23
S'host_name'
p24
g22
sS'host_mac'
p25
S'00:12:ff:56'
p26
sS'host_ip'
p27
S'192.168.0.192'
p28
ssS'nico'
p29
(dp30
g24
g29
sg25
S'00:00:00:00'
p31
sg27
S'192.168.0.188'
p32
sssb.